; Function Attrs: mustprogress uwtable
define hidden void @_ZN3nla15monomial_bounds15propagate_fixedERKNS_5monicERK8rational(ptr noundef nonnull align 8 dereferenceable(192) %this, ptr nocapture noundef nonnull readonly align 8 dereferenceable(34) %m, ptr noundef nonnull align 8 dereferenceable(32) %k) local_unnamed_addr #3 align 2 personality ptr @__gxx_personality_v0 {
entry:
  %exp = alloca %"class.lp::explanation", align 8
  %call = tail call noundef ptr @_ZN3nla15monomial_bounds13explain_fixedERKNS_5monicERK8rational(ptr noundef nonnull align 8 dereferenceable(192) %this, ptr noundef nonnull align 8 dereferenceable(34) %m, ptr noundef nonnull align 8 dereferenceable(32) %k)
  %0 = load ptr, ptr %this, align 8
  %lra = getelementptr inbounds i8, ptr %0, i64 192
  %1 = load ptr, ptr %lra, align 8
  %2 = load i32, ptr %m, align 8
  tail call void @_ZN2lp10lar_solver28update_column_type_and_boundEjNS_16lconstraint_kindERK8rationalPN18dependency_managerIN25scoped_dependency_managerIjE6configEE10dependencyE(ptr noundef nonnull align 8 dereferenceable(1888) %1, i32 noundef %2, i32 noundef 0, ptr noundef nonnull align 8 dereferenceable(32) %k, ptr noundef %call)
  call void @_ZN3nla15monomial_bounds15get_explanationEPN18dependency_managerIN25scoped_dependency_managerIjE6configEE10dependencyE(ptr nonnull sret(%"class.lp::explanation") align 8 %exp, ptr noundef nonnull align 8 dereferenceable(192) %this, ptr noundef %call)
  %3 = load ptr, ptr %this, align 8
  %lra7 = getelementptr inbounds i8, ptr %3, i64 192
  %4 = load ptr, ptr %lra7, align 8
  %5 = load i32, ptr %m, align 8
  %call11 = invoke noundef i32 @_ZNK2lp10lar_solver24column_to_reported_indexEj(ptr noundef nonnull align 8 dereferenceable(1888) %4, i32 noundef %5)
          to label %invoke.cont10 unwind label %lpad

invoke.cont10:                                    ; preds = %entry
  invoke void @_ZN3nla4core18add_fixed_equalityEjRK8rationalRKN2lp11explanationE(ptr noundef nonnull align 8 dereferenceable(4720) %3, i32 noundef %call11, ptr noundef nonnull align 8 dereferenceable(32) %k, ptr noundef nonnull align 8 dereferenceable(32) %exp)
          to label %invoke.cont12 unwind label %lpad

invoke.cont12:                                    ; preds = %invoke.cont10
  call void @_ZN2lp11explanationD2Ev(ptr noundef nonnull align 8 dereferenceable(32) %exp) #16
  ret void

lpad:                                             ; preds = %invoke.cont10, %entry
  %6 = landingpad { ptr, i32 }
          cleanup
  call void @_ZN2lp11explanationD2Ev(ptr noundef nonnull align 8 dereferenceable(32) %exp) #16
  resume { ptr, i32 } %6
}